; Function Attrs: nounwind uwtable
define range(i32 0, -2147483648) i32 @wolfSSL_read_ex(ptr noundef %0, ptr noundef %1, i64 noundef %2, ptr noundef writeonly captures(address_is_null) %3) local_unnamed_addr #0 {
  %5 = icmp eq ptr %0, null
  %6 = icmp eq ptr %1, null
  %or.cond.i = or i1 %5, %6
  br i1 %or.cond.i, label %wolfSSL_read_internal.exit.thread, label %wolfSSL_read_internal.exit

wolfSSL_read_internal.exit:                       ; preds = %4
  %7 = tail call ptr @__errno_location() #24
  store i32 0, ptr %7, align 4, !tbaa !3
  %8 = tail call i32 @ReceiveData(ptr noundef nonnull %0, ptr noundef nonnull %1, i64 noundef %2, i32 noundef 0) #22
  %..i = tail call i32 @llvm.smax.i32(i32 %8, i32 -1)
  %9 = icmp sgt i32 %8, 0
  %10 = icmp ne ptr %3, null
  %or.cond = and i1 %10, %9
  br i1 %or.cond, label %11, label %wolfSSL_read_internal.exit.thread

11:                                               ; preds = %wolfSSL_read_internal.exit
  %12 = zext nneg i32 %..i to i64
  store i64 %12, ptr %3, align 8, !tbaa !27
  br label %wolfSSL_read_internal.exit.thread

wolfSSL_read_internal.exit.thread:                ; preds = %4, %11, %wolfSSL_read_internal.exit
  %.0.i12 = phi i32 [ %..i, %11 ], [ %..i, %wolfSSL_read_internal.exit ], [ -173, %4 ]
  %spec.store.select = tail call i32 @llvm.smax.i32(i32 %.0.i12, i32 0)
  ret i32 %spec.store.select
}